target datalayout = "e-m:e-p270:32:32-p271:32:32-p272:64:64-i64:64-i128:128-f80:128-n8:16:32:64-S128"
target triple = "x86_64-pc-linux-gnu"

%"struct.icu_77::LocaleDistanceData" = type { ptr, ptr, ptr, ptr, i32, ptr }
%"class.icu_77::BytesTrie" = type <{ ptr, ptr, ptr, i32, [4 x i8] }>
%"struct.icu_77::LSR" = type <{ ptr, ptr, ptr, ptr, i32, i32, i32, [4 x i8] }>
%"class.icu_77::LocaleDistance" = type { ptr, %"class.icu_77::BytesTrie", ptr, ptr, ptr, i32, i32, i32, i32, i32, i32 }

@.str = private unnamed_addr constant [3 x i8] c"en\00", align 1
@.str.1 = private unnamed_addr constant [5 x i8] c"Latn\00", align 1
@.str.2 = private unnamed_addr constant [3 x i8] c"US\00", align 1
@.str.3 = private unnamed_addr constant [3 x i8] c"GB\00", align 1

; Function Attrs: mustprogress nounwind uwtable
define linkonce_odr noundef i32 @_ZN6icu_7714LocaleDistance16getDistanceFloorEi(i32 noundef %0) #4 comdat align 2 {
  %2 = alloca i32, align 4
  store i32 %0, ptr %2, align 4, !tbaa !40
  %3 = load i32, ptr %2, align 4, !tbaa !40
  %4 = and i32 %3, 1023
  %5 = ashr i32 %4, 3
  ret i32 %5
}

; Function Attrs: mustprogress nounwind uwtable
define linkonce_odr noundef i32 @_ZN6icu_7714LocaleDistance13shiftDistanceEi(i32 noundef %0) #4 comdat align 2 {
  %2 = alloca i32, align 4
  store i32 %0, ptr %2, align 4, !tbaa !40
  %3 = load i32, ptr %2, align 4, !tbaa !40
  %4 = shl i32 %3, 3
  ret i32 %4
}

; Function Attrs: mustprogress uwtable
define linkonce_odr void @_ZN6icu_773LSRC2EPKcS2_S2_i(ptr noundef nonnull align 8 dereferenceable(48) %0, ptr noundef %1, ptr noundef %2, ptr noundef %3, i32 noundef %4) unnamed_addr #0 comdat align 2 {
  %6 = alloca ptr, align 8
  %7 = alloca ptr, align 8
  %8 = alloca ptr, align 8
  %9 = alloca ptr, align 8
  %10 = alloca i32, align 4
  store ptr %0, ptr %6, align 8, !tbaa !45
  store ptr %1, ptr %7, align 8, !tbaa !53
  store ptr %2, ptr %8, align 8, !tbaa !53
  store ptr %3, ptr %9, align 8, !tbaa !53
  store i32 %4, ptr %10, align 4, !tbaa !40
  %11 = load ptr, ptr %6, align 8
  %12 = getelementptr inbounds nuw %"struct.icu_77::LSR", ptr %11, i32 0, i32 0
  %13 = load ptr, ptr %7, align 8, !tbaa !53
  store ptr %13, ptr %12, align 8, !tbaa !54
  %14 = getelementptr inbounds nuw %"struct.icu_77::LSR", ptr %11, i32 0, i32 1
  %15 = load ptr, ptr %8, align 8, !tbaa !53
  store ptr %15, ptr %14, align 8, !tbaa !56
  %16 = getelementptr inbounds nuw %"struct.icu_77::LSR", ptr %11, i32 0, i32 2
  %17 = load ptr, ptr %9, align 8, !tbaa !53
  store ptr %17, ptr %16, align 8, !tbaa !57
  %18 = getelementptr inbounds nuw %"struct.icu_77::LSR", ptr %11, i32 0, i32 3
  store ptr null, ptr %18, align 8, !tbaa !58
  %19 = getelementptr inbounds nuw %"struct.icu_77::LSR", ptr %11, i32 0, i32 4
  %20 = getelementptr inbounds nuw %"struct.icu_77::LSR", ptr %11, i32 0, i32 2
  %21 = load ptr, ptr %20, align 8, !tbaa !57
  %22 = call noundef i32 @_ZN6icu_773LSR14indexForRegionEPKc(ptr noundef %21)
  store i32 %22, ptr %19, align 8, !tbaa !59
  %23 = getelementptr inbounds nuw %"struct.icu_77::LSR", ptr %11, i32 0, i32 5
  %24 = load i32, ptr %10, align 4, !tbaa !40
  store i32 %24, ptr %23, align 4, !tbaa !60
  %25 = getelementptr inbounds nuw %"struct.icu_77::LSR", ptr %11, i32 0, i32 6
  store i32 0, ptr %25, align 8, !tbaa !61
  ret void
}

; Function Attrs: mustprogress nounwind uwtable
define linkonce_odr void @_ZN6icu_779BytesTrieC2EPKv(ptr noundef nonnull align 8 dereferenceable(28) %0, ptr noundef %1) unnamed_addr #4 comdat align 2 {
  %3 = alloca ptr, align 8
  %4 = alloca ptr, align 8
  store ptr %0, ptr %3, align 8, !tbaa !47
  store ptr %1, ptr %4, align 8, !tbaa !3
  %5 = load ptr, ptr %3, align 8
  %6 = getelementptr inbounds nuw %"class.icu_77::BytesTrie", ptr %5, i32 0, i32 0
  store ptr null, ptr %6, align 8, !tbaa !49
  %7 = getelementptr inbounds nuw %"class.icu_77::BytesTrie", ptr %5, i32 0, i32 1
  %8 = load ptr, ptr %4, align 8, !tbaa !3
  store ptr %8, ptr %7, align 8, !tbaa !50
  %9 = getelementptr inbounds nuw %"class.icu_77::BytesTrie", ptr %5, i32 0, i32 2
  %10 = getelementptr inbounds nuw %"class.icu_77::BytesTrie", ptr %5, i32 0, i32 1
  %11 = load ptr, ptr %10, align 8, !tbaa !50
  store ptr %11, ptr %9, align 8, !tbaa !51
  %12 = getelementptr inbounds nuw %"class.icu_77::BytesTrie", ptr %5, i32 0, i32 3
  store i32 -1, ptr %12, align 8, !tbaa !52
  ret void
}

; Function Attrs: mustprogress uwtable
define void @_ZN6icu_7714LocaleDistanceC2ERKNS_18LocaleDistanceDataERKNS_13LikelySubtagsE(ptr noundef nonnull align 8 dereferenceable(88) %0, ptr noundef nonnull align 8 dereferenceable(48) %1, ptr noundef nonnull align 8 dereferenceable(352) %2) unnamed_addr #0 align 2 personality ptr @__gxx_personality_v0 {
  %4 = alloca ptr, align 8
  %5 = alloca ptr, align 8
  %6 = alloca ptr, align 8
  %7 = alloca %"struct.icu_77::LSR", align 8
  %8 = alloca ptr, align 8
  %9 = alloca i32, align 4
  %10 = alloca %"struct.icu_77::LSR", align 8
  %11 = alloca ptr, align 8
  %12 = alloca i32, align 4
  store ptr %0, ptr %4, align 8, !tbaa !24
  store ptr %1, ptr %5, align 8, !tbaa !11
  store ptr %2, ptr %6, align 8, !tbaa !7
  %13 = load ptr, ptr %4, align 8
  %14 = getelementptr inbounds nuw %"class.icu_77::LocaleDistance", ptr %13, i32 0, i32 0
  %15 = load ptr, ptr %6, align 8, !tbaa !7
  store ptr %15, ptr %14, align 8, !tbaa !7
  %16 = getelementptr inbounds nuw %"class.icu_77::LocaleDistance", ptr %13, i32 0, i32 1
  %17 = load ptr, ptr %5, align 8, !tbaa !11
  %18 = getelementptr inbounds nuw %"struct.icu_77::LocaleDistanceData", ptr %17, i32 0, i32 0
  %19 = load ptr, ptr %18, align 8, !tbaa !13
  call void @_ZN6icu_779BytesTrieC2EPKv(ptr noundef nonnull align 8 dereferenceable(28) %16, ptr noundef %19)
  %20 = getelementptr inbounds nuw %"class.icu_77::LocaleDistance", ptr %13, i32 0, i32 2
  %21 = load ptr, ptr %5, align 8, !tbaa !11
  %22 = getelementptr inbounds nuw %"struct.icu_77::LocaleDistanceData", ptr %21, i32 0, i32 1
  %23 = load ptr, ptr %22, align 8, !tbaa !21
  store ptr %23, ptr %20, align 8, !tbaa !32
  %24 = getelementptr inbounds nuw %"class.icu_77::LocaleDistance", ptr %13, i32 0, i32 3
  %25 = load ptr, ptr %5, align 8, !tbaa !11
  %26 = getelementptr inbounds nuw %"struct.icu_77::LocaleDistanceData", ptr %25, i32 0, i32 2
  %27 = load ptr, ptr %26, align 8, !tbaa !22
  store ptr %27, ptr %24, align 8, !tbaa !35
  %28 = getelementptr inbounds nuw %"class.icu_77::LocaleDistance", ptr %13, i32 0, i32 4
  %29 = load ptr, ptr %5, align 8, !tbaa !11
  %30 = getelementptr inbounds nuw %"struct.icu_77::LocaleDistanceData", ptr %29, i32 0, i32 3
  %31 = load ptr, ptr %30, align 8, !tbaa !36
  store ptr %31, ptr %28, align 8, !tbaa !37
  %32 = getelementptr inbounds nuw %"class.icu_77::LocaleDistance", ptr %13, i32 0, i32 5
  %33 = load ptr, ptr %5, align 8, !tbaa !11
  %34 = getelementptr inbounds nuw %"struct.icu_77::LocaleDistanceData", ptr %33, i32 0, i32 4
  %35 = load i32, ptr %34, align 8, !tbaa !38
  store i32 %35, ptr %32, align 8, !tbaa !39
  %36 = getelementptr inbounds nuw %"class.icu_77::LocaleDistance", ptr %13, i32 0, i32 6
  %37 = load ptr, ptr %5, align 8, !tbaa !11
  %38 = getelementptr inbounds nuw %"struct.icu_77::LocaleDistanceData", ptr %37, i32 0, i32 5
  %39 = load ptr, ptr %38, align 8, !tbaa !23
  %40 = getelementptr inbounds nuw i32, ptr %39, i64 0
  %41 = load i32, ptr %40, align 4, !tbaa !40
  store i32 %41, ptr %36, align 4, !tbaa !41
  %42 = getelementptr inbounds nuw %"class.icu_77::LocaleDistance", ptr %13, i32 0, i32 7
  %43 = load ptr, ptr %5, align 8, !tbaa !11
  %44 = getelementptr inbounds nuw %"struct.icu_77::LocaleDistanceData", ptr %43, i32 0, i32 5
  %45 = load ptr, ptr %44, align 8, !tbaa !23
  %46 = getelementptr inbounds nuw i32, ptr %45, i64 1
  %47 = load i32, ptr %46, align 4, !tbaa !40
  store i32 %47, ptr %42, align 8, !tbaa !42
  %48 = getelementptr inbounds nuw %"class.icu_77::LocaleDistance", ptr %13, i32 0, i32 8
  %49 = load ptr, ptr %5, align 8, !tbaa !11
  %50 = getelementptr inbounds nuw %"struct.icu_77::LocaleDistanceData", ptr %49, i32 0, i32 5
  %51 = load ptr, ptr %50, align 8, !tbaa !23
  %52 = getelementptr inbounds nuw i32, ptr %51, i64 2
  %53 = load i32, ptr %52, align 4, !tbaa !40
  store i32 %53, ptr %48, align 4, !tbaa !43
  %54 = getelementptr inbounds nuw %"class.icu_77::LocaleDistance", ptr %13, i32 0, i32 9
  %55 = load ptr, ptr %5, align 8, !tbaa !11
  %56 = getelementptr inbounds nuw %"struct.icu_77::LocaleDistanceData", ptr %55, i32 0, i32 5
  %57 = load ptr, ptr %56, align 8, !tbaa !23
  %58 = getelementptr inbounds nuw i32, ptr %57, i64 3
  %59 = load i32, ptr %58, align 4, !tbaa !40
  store i32 %59, ptr %54, align 8, !tbaa !44
  call void @llvm.lifetime.start.p0(i64 48, ptr %7) #10
  invoke void @_ZN6icu_773LSRC2EPKcS2_S2_i(ptr noundef nonnull align 8 dereferenceable(48) %7, ptr noundef @.str, ptr noundef @.str.1, ptr noundef @.str.2, i32 noundef 7)
          to label %60 unwind label %70

60:                                               ; preds = %3
  call void @llvm.lifetime.start.p0(i64 48, ptr %10) #10
  invoke void @_ZN6icu_773LSRC2EPKcS2_S2_i(ptr noundef nonnull align 8 dereferenceable(48) %10, ptr noundef @.str, ptr noundef @.str.1, ptr noundef @.str.3, i32 noundef 7)
          to label %61 unwind label %74

61:                                               ; preds = %60
  call void @llvm.lifetime.start.p0(i64 8, ptr %11) #10
  store ptr %10, ptr %11, align 8, !tbaa !45
  call void @llvm.lifetime.start.p0(i64 4, ptr %12) #10
  %62 = invoke noundef i32 @_ZN6icu_7714LocaleDistance13shiftDistanceEi(i32 noundef 50)
          to label %63 unwind label %78

63:                                               ; preds = %61
  %64 = invoke noundef i32 @_ZNK6icu_7714LocaleDistance23getBestIndexAndDistanceERKNS_3LSREPPS2_ii20ULocMatchFavorSubtag18ULocMatchDirection(ptr noundef nonnull align 8 dereferenceable(88) %13, ptr noundef nonnull align 8 dereferenceable(48) %7, ptr noundef %11, i32 noundef 1, i32 noundef %62, i32 noundef 0, i32 noundef 0)
          to label %65 unwind label %78

65:                                               ; preds = %63
  store i32 %64, ptr %12, align 4, !tbaa !40
  %66 = load i32, ptr %12, align 4, !tbaa !40
  %67 = invoke noundef i32 @_ZN6icu_7714LocaleDistance16getDistanceFloorEi(i32 noundef %66)
          to label %68 unwind label %78

68:                                               ; preds = %65
  %69 = getelementptr inbounds nuw %"class.icu_77::LocaleDistance", ptr %13, i32 0, i32 10
  store i32 %67, ptr %69, align 4, !tbaa !46
  call void @llvm.lifetime.end.p0(i64 4, ptr %12) #10
  call void @llvm.lifetime.end.p0(i64 8, ptr %11) #10
  call void @_ZN6icu_773LSRD2Ev(ptr noundef nonnull align 8 dereferenceable(48) %10) #10
  call void @llvm.lifetime.end.p0(i64 48, ptr %10) #10
  call void @_ZN6icu_773LSRD2Ev(ptr noundef nonnull align 8 dereferenceable(48) %7) #10
  call void @llvm.lifetime.end.p0(i64 48, ptr %7) #10
  ret void

70:                                               ; preds = %3
  %71 = landingpad { ptr, i32 }
          cleanup
  %72 = extractvalue { ptr, i32 } %71, 0
  store ptr %72, ptr %8, align 8
  %73 = extractvalue { ptr, i32 } %71, 1
  store i32 %73, ptr %9, align 4
  br label %83

74:                                               ; preds = %60
  %75 = landingpad { ptr, i32 }
          cleanup
  %76 = extractvalue { ptr, i32 } %75, 0
  store ptr %76, ptr %8, align 8
  %77 = extractvalue { ptr, i32 } %75, 1
  store i32 %77, ptr %9, align 4
  br label %82

78:                                               ; preds = %65, %63, %61
  %79 = landingpad { ptr, i32 }
          cleanup
  %80 = extractvalue { ptr, i32 } %79, 0
  store ptr %80, ptr %8, align 8
  %81 = extractvalue { ptr, i32 } %79, 1
  store i32 %81, ptr %9, align 4
  call void @llvm.lifetime.end.p0(i64 4, ptr %12) #10
  call void @llvm.lifetime.end.p0(i64 8, ptr %11) #10
  call void @_ZN6icu_773LSRD2Ev(ptr noundef nonnull align 8 dereferenceable(48) %10) #10
  br label %82

82:                                               ; preds = %78, %74
  call void @llvm.lifetime.end.p0(i64 48, ptr %10) #10
  call void @_ZN6icu_773LSRD2Ev(ptr noundef nonnull align 8 dereferenceable(48) %7) #10
  br label %83

83:                                               ; preds = %82, %70
  call void @llvm.lifetime.end.p0(i64 48, ptr %7) #10
  call void @_ZN6icu_779BytesTrieD1Ev(ptr noundef nonnull align 8 dereferenceable(28) %16) #10
  br label %84

84:                                               ; preds = %83
  %85 = load ptr, ptr %8, align 8
  %86 = load i32, ptr %9, align 4
  %87 = insertvalue { ptr, i32 } poison, ptr %85, 0
  %88 = insertvalue { ptr, i32 } %87, i32 %86, 1
  resume { ptr, i32 } %88
}