; Function Attrs: mustprogress uwtable
define void @_ZN6icu_7714LocaleDistanceC2ERKNS_18LocaleDistanceDataERKNS_13LikelySubtagsE(ptr noundef nonnull align 8 dereferenceable(88) initializes((0, 36), (40, 84)) %0, ptr noundef nonnull readonly align 8 captures(none) dereferenceable(48) %1, ptr noundef nonnull align 8 dereferenceable(352) %2) unnamed_addr #0 align 2 personality ptr @__gxx_personality_v0 {
  %4 = alloca %"struct.icu_77::LSR", align 8
  %5 = alloca %"struct.icu_77::LSR", align 8
  %6 = alloca ptr, align 8
  store ptr %2, ptr %0, align 8, !tbaa !25
  %7 = getelementptr inbounds nuw i8, ptr %0, i64 8
  %8 = load ptr, ptr %1, align 8, !tbaa !7
  store ptr null, ptr %7, align 8, !tbaa !27
  %9 = getelementptr inbounds nuw i8, ptr %0, i64 16
  store ptr %8, ptr %9, align 8, !tbaa !29
  %10 = getelementptr inbounds nuw i8, ptr %0, i64 24
  store ptr %8, ptr %10, align 8, !tbaa !30
  %11 = getelementptr inbounds nuw i8, ptr %0, i64 32
  store i32 -1, ptr %11, align 8, !tbaa !31
  %12 = getelementptr inbounds nuw i8, ptr %0, i64 40
  %13 = getelementptr inbounds nuw i8, ptr %1, i64 8
  %14 = load ptr, ptr %13, align 8, !tbaa !16
  store ptr %14, ptr %12, align 8, !tbaa !32
  %15 = getelementptr inbounds nuw i8, ptr %0, i64 48
  %16 = getelementptr inbounds nuw i8, ptr %1, i64 16
  %17 = load ptr, ptr %16, align 8, !tbaa !17
  store ptr %17, ptr %15, align 8, !tbaa !34
  %18 = getelementptr inbounds nuw i8, ptr %0, i64 56
  %19 = getelementptr inbounds nuw i8, ptr %1, i64 24
  %20 = load ptr, ptr %19, align 8, !tbaa !35
  store ptr %20, ptr %18, align 8, !tbaa !36
  %21 = getelementptr inbounds nuw i8, ptr %0, i64 64
  %22 = getelementptr inbounds nuw i8, ptr %1, i64 32
  %23 = load i32, ptr %22, align 8, !tbaa !37
  store i32 %23, ptr %21, align 8, !tbaa !38
  %24 = getelementptr inbounds nuw i8, ptr %0, i64 68
  %25 = getelementptr inbounds nuw i8, ptr %1, i64 40
  %26 = load ptr, ptr %25, align 8, !tbaa !18
  %27 = load i32, ptr %26, align 4, !tbaa !39
  store i32 %27, ptr %24, align 4, !tbaa !40
  %28 = getelementptr inbounds nuw i8, ptr %0, i64 72
  %29 = getelementptr inbounds nuw i8, ptr %26, i64 4
  %30 = load i32, ptr %29, align 4, !tbaa !39
  store i32 %30, ptr %28, align 8, !tbaa !41
  %31 = getelementptr inbounds nuw i8, ptr %0, i64 76
  %32 = getelementptr inbounds nuw i8, ptr %26, i64 8
  %33 = load i32, ptr %32, align 4, !tbaa !39
  store i32 %33, ptr %31, align 4, !tbaa !42
  %34 = getelementptr inbounds nuw i8, ptr %0, i64 80
  %35 = getelementptr inbounds nuw i8, ptr %26, i64 12
  %36 = load i32, ptr %35, align 4, !tbaa !39
  store i32 %36, ptr %34, align 8, !tbaa !43
  call void @llvm.lifetime.start.p0(i64 48, ptr nonnull %4) #10
  store ptr @.str, ptr %4, align 8, !tbaa !44
  %37 = getelementptr inbounds nuw i8, ptr %4, i64 8
  store ptr @.str.1, ptr %37, align 8, !tbaa !46
  %38 = getelementptr inbounds nuw i8, ptr %4, i64 16
  store ptr @.str.2, ptr %38, align 8, !tbaa !47
  %39 = getelementptr inbounds nuw i8, ptr %4, i64 24
  store ptr null, ptr %39, align 8, !tbaa !48
  %40 = invoke noundef i32 @_ZN6icu_773LSR14indexForRegionEPKc(ptr noundef nonnull @.str.2)
          to label %41 unwind label %68

41:                                               ; preds = %3
  %42 = getelementptr inbounds nuw i8, ptr %4, i64 32
  store i32 %40, ptr %42, align 8, !tbaa !49
  %43 = getelementptr inbounds nuw i8, ptr %4, i64 36
  store i32 7, ptr %43, align 4, !tbaa !50
  %44 = getelementptr inbounds nuw i8, ptr %4, i64 40
  store i32 0, ptr %44, align 8, !tbaa !51
  call void @llvm.lifetime.start.p0(i64 48, ptr nonnull %5) #10
  store ptr @.str, ptr %5, align 8, !tbaa !44
  %45 = getelementptr inbounds nuw i8, ptr %5, i64 8
  store ptr @.str.1, ptr %45, align 8, !tbaa !46
  %46 = getelementptr inbounds nuw i8, ptr %5, i64 16
  store ptr @.str.3, ptr %46, align 8, !tbaa !47
  %47 = getelementptr inbounds nuw i8, ptr %5, i64 24
  store ptr null, ptr %47, align 8, !tbaa !48
  %48 = invoke noundef i32 @_ZN6icu_773LSR14indexForRegionEPKc(ptr noundef nonnull @.str.3)
          to label %49 unwind label %70

49:                                               ; preds = %41
  %50 = getelementptr inbounds nuw i8, ptr %5, i64 32
  store i32 %48, ptr %50, align 8, !tbaa !49
  %51 = getelementptr inbounds nuw i8, ptr %5, i64 36
  store i32 7, ptr %51, align 4, !tbaa !50
  %52 = getelementptr inbounds nuw i8, ptr %5, i64 40
  store i32 0, ptr %52, align 8, !tbaa !51
  call void @llvm.lifetime.start.p0(i64 8, ptr nonnull %6) #10
  store ptr %5, ptr %6, align 8, !tbaa !52
  %53 = invoke noundef i32 @_ZNK6icu_7714LocaleDistance23getBestIndexAndDistanceERKNS_3LSREPPS2_ii20ULocMatchFavorSubtag18ULocMatchDirection(ptr noundef nonnull align 8 dereferenceable(88) %0, ptr noundef nonnull align 8 dereferenceable(48) %4, ptr noundef nonnull %6, i32 noundef 1, i32 noundef 400, i32 noundef 0, i32 noundef 0)
          to label %54 unwind label %72

54:                                               ; preds = %49
  %55 = lshr i32 %53, 3
  %56 = and i32 %55, 127
  %57 = getelementptr inbounds nuw i8, ptr %0, i64 84
  store i32 %56, ptr %57, align 4, !tbaa !53
  call void @llvm.lifetime.end.p0(i64 8, ptr nonnull %6) #10
  %58 = load ptr, ptr %47, align 8, !tbaa !48
  %.not.i = icmp eq ptr %58, null
  br i1 %.not.i, label %_ZN6icu_773LSRD2Ev.exit, label %59

59:                                               ; preds = %54
  invoke void @_ZN6icu_773LSR11deleteOwnedEv(ptr noundef nonnull align 8 dereferenceable(48) %5)
          to label %_ZN6icu_773LSRD2Ev.exit unwind label %60

60:                                               ; preds = %59
  %61 = landingpad { ptr, i32 }
          catch ptr null
  %62 = extractvalue { ptr, i32 } %61, 0
  call void @__clang_call_terminate(ptr %62) #11
  unreachable

_ZN6icu_773LSRD2Ev.exit:                          ; preds = %54, %59
  call void @llvm.lifetime.end.p0(i64 48, ptr nonnull %5) #10
  %63 = load ptr, ptr %39, align 8, !tbaa !48
  %.not.i18 = icmp eq ptr %63, null
  br i1 %.not.i18, label %_ZN6icu_773LSRD2Ev.exit19, label %64

64:                                               ; preds = %_ZN6icu_773LSRD2Ev.exit
  invoke void @_ZN6icu_773LSR11deleteOwnedEv(ptr noundef nonnull align 8 dereferenceable(48) %4)
          to label %_ZN6icu_773LSRD2Ev.exit19 unwind label %65

65:                                               ; preds = %64
  %66 = landingpad { ptr, i32 }
          catch ptr null
  %67 = extractvalue { ptr, i32 } %66, 0
  call void @__clang_call_terminate(ptr %67) #11
  unreachable

_ZN6icu_773LSRD2Ev.exit19:                        ; preds = %_ZN6icu_773LSRD2Ev.exit, %64
  call void @llvm.lifetime.end.p0(i64 48, ptr nonnull %4) #10
  ret void

68:                                               ; preds = %3
  %69 = landingpad { ptr, i32 }
          cleanup
  br label %75

70:                                               ; preds = %41
  %71 = landingpad { ptr, i32 }
          cleanup
  br label %74

72:                                               ; preds = %49
  %73 = landingpad { ptr, i32 }
          cleanup
  call void @llvm.lifetime.end.p0(i64 8, ptr nonnull %6) #10
  call void @_ZN6icu_773LSRD2Ev(ptr noundef nonnull align 8 dereferenceable(48) %5) #10
  br label %74

74:                                               ; preds = %72, %70
  %.pn = phi { ptr, i32 } [ %73, %72 ], [ %71, %70 ]
  call void @llvm.lifetime.end.p0(i64 48, ptr nonnull %5) #10
  call void @_ZN6icu_773LSRD2Ev(ptr noundef nonnull align 8 dereferenceable(48) %4) #10
  br label %75

75:                                               ; preds = %74, %68
  %.pn.pn = phi { ptr, i32 } [ %.pn, %74 ], [ %69, %68 ]
  call void @llvm.lifetime.end.p0(i64 48, ptr nonnull %4) #10
  call void @_ZN6icu_779BytesTrieD1Ev(ptr noundef nonnull align 8 dereferenceable(28) %7) #10
  resume { ptr, i32 } %.pn.pn
}